; Function Attrs: nounwind uwtable
define noalias noundef ptr @Part_ManTransferEntry(ptr noundef readonly captures(none) %0) local_unnamed_addr #4 {
  %2 = getelementptr inbounds nuw i8, ptr %0, i64 4
  %3 = load i32, ptr %2, align 4, !tbaa !25
  %4 = tail call noalias dereferenceable_or_null(16) ptr @malloc(i64 noundef 16) #23
  %5 = add i32 %3, -1
  %or.cond.i = icmp ult i32 %5, 15
  %spec.store.select.i = select i1 %or.cond.i, i32 16, i32 %3
  %6 = getelementptr inbounds nuw i8, ptr %4, i64 4
  store i32 0, ptr %6, align 4, !tbaa !33
  store i32 %spec.store.select.i, ptr %4, align 8, !tbaa !36
  %.not.i = icmp eq i32 %spec.store.select.i, 0
  br i1 %.not.i, label %Vec_IntAlloc.exit, label %7

7:                                                ; preds = %1
  %8 = sext i32 %spec.store.select.i to i64
  %9 = shl nsw i64 %8, 2
  %10 = tail call noalias ptr @malloc(i64 noundef %9) #23
  br label %Vec_IntAlloc.exit

Vec_IntAlloc.exit:                                ; preds = %1, %7
  %11 = phi ptr [ %10, %7 ], [ null, %1 ]
  %12 = getelementptr inbounds nuw i8, ptr %4, i64 8
  store ptr %11, ptr %12, align 8, !tbaa !37
  %13 = icmp sgt i32 %3, 0
  br i1 %13, label %.lr.ph, label %._crit_edge

.lr.ph:                                           ; preds = %Vec_IntAlloc.exit
  %14 = getelementptr inbounds nuw i8, ptr %0, i64 12
  br label %15

15:                                               ; preds = %.lr.ph, %Vec_IntPush.exit
  %16 = phi ptr [ %11, %.lr.ph ], [ %.pre.i10, %Vec_IntPush.exit ]
  %indvars.iv = phi i64 [ 0, %.lr.ph ], [ %indvars.iv.next, %Vec_IntPush.exit ]
  %17 = getelementptr inbounds nuw [0 x i32], ptr %14, i64 0, i64 %indvars.iv
  %18 = load i32, ptr %17, align 4, !tbaa !29
  %19 = load i32, ptr %6, align 4, !tbaa !33
  %20 = load i32, ptr %4, align 8, !tbaa !36
  %21 = icmp eq i32 %19, %20
  br i1 %21, label %22, label %Vec_IntPush.exit

22:                                               ; preds = %15
  %23 = icmp slt i32 %19, 16
  br i1 %23, label %24, label %29

24:                                               ; preds = %22
  %.not9.i.i = icmp eq ptr %16, null
  br i1 %.not9.i.i, label %27, label %25

25:                                               ; preds = %24
  %26 = tail call dereferenceable_or_null(64) ptr @realloc(ptr noundef nonnull %16, i64 noundef 64) #25
  br label %Vec_IntPush.exit.sink.split

27:                                               ; preds = %24
  %28 = tail call noalias dereferenceable_or_null(64) ptr @malloc(i64 noundef 64) #23
  br label %Vec_IntPush.exit.sink.split

29:                                               ; preds = %22
  %30 = shl nuw nsw i32 %19, 1
  %.not9.i9.i = icmp eq ptr %16, null
  %31 = zext nneg i32 %30 to i64
  %32 = shl nuw nsw i64 %31, 2
  br i1 %.not9.i9.i, label %35, label %33

33:                                               ; preds = %29
  %34 = tail call ptr @realloc(ptr noundef nonnull %16, i64 noundef %32) #25
  br label %Vec_IntPush.exit.sink.split

35:                                               ; preds = %29
  %36 = tail call noalias ptr @malloc(i64 noundef %32) #23
  br label %Vec_IntPush.exit.sink.split

Vec_IntPush.exit.sink.split:                      ; preds = %33, %35, %25, %27
  %.sink11 = phi ptr [ %26, %25 ], [ %28, %27 ], [ %34, %33 ], [ %36, %35 ]
  %.sink = phi i32 [ 16, %25 ], [ 16, %27 ], [ %30, %33 ], [ %30, %35 ]
  store ptr %.sink11, ptr %12, align 8, !tbaa !37
  store i32 %.sink, ptr %4, align 8, !tbaa !36
  br label %Vec_IntPush.exit

Vec_IntPush.exit:                                 ; preds = %Vec_IntPush.exit.sink.split, %15
  %.pre.i10 = phi ptr [ %16, %15 ], [ %.sink11, %Vec_IntPush.exit.sink.split ]
  %37 = add nsw i32 %19, 1
  store i32 %37, ptr %6, align 4, !tbaa !33
  %38 = sext i32 %19 to i64
  %39 = getelementptr inbounds i32, ptr %.pre.i10, i64 %38
  store i32 %18, ptr %39, align 4, !tbaa !29
  %indvars.iv.next = add nuw nsw i64 %indvars.iv, 1
  %40 = load i32, ptr %2, align 4, !tbaa !25
  %41 = sext i32 %40 to i64
  %42 = icmp slt i64 %indvars.iv.next, %41
  br i1 %42, label %15, label %._crit_edge, !llvm.loop !38

._crit_edge:                                      ; preds = %Vec_IntPush.exit, %Vec_IntAlloc.exit
  ret ptr %4
}